Certificate:
    Data:
        Version: 3 (0x2)
        Serial Number:
            88:58:79:cf:d9:52:5e:16
    Signature Algorithm: sha256WithRSAEncryption
        Issuer: C=IT, ST=Florence, O=Your_CA_organization_name, OU=Your_CA_organization_unit_name, CN=Your_CA_Root_name/emailAddress=your@ca.email
        Validity
            Not Before: Oct 29 13:46:39 2019 GMT
            Not After : Mar 15 13:46:39 2047 GMT
        Subject: C=IT, ST=Florence, O=Your_CA_organization_name, OU=Your_CA_organization_unit_name, CN=Your_CA_Root_name/emailAddress=your@ca.email
        Subject Public Key Info:
            Public Key Algorithm: rsaEncryption
                Public-Key: (4096 bit)
                Modulus:
                    00:bc:c7:c3:17:4f:2a:3e:a3:02:1d:3e:fd:c9:19:
                    5a:ae:14:ec:ba:b8:97:8a:3e:26:5d:ff:f2:aa:f6:
                    7f:3f:9b:46:88:18:28:59:df:9b:15:c6:2e:07:4e:
                    c6:a6:ce:49:ee:87:ea:4f:2f:6e:34:3a:38:79:6b:
                    72:5f:ed:c0:0f:fd:65:3b:4e:ee:b3:f6:28:25:2d:
                    58:32:66:7c:4b:8d:28:cb:bf:30:cc:21:3e:88:22:
                    6a:87:67:4f:31:0e:58:28:0c:10:b6:34:06:ed:9d:
                    4d:f5:ae:8e:03:73:37:8e:b0:5e:6d:5f:95:f1:23:
                    22:f2:00:49:11:d2:aa:de:e4:77:13:b0:e7:66:97:
                    3f:33:b5:3d:e9:7c:58:50:1f:9b:c1:42:2a:14:27:
                    66:f2:27:1c:09:cb:bc:ab:94:2b:1f:28:9b:20:a3:
                    a5:63:10:d8:6a:41:29:bd:30:82:95:63:f2:fc:00:
                    2f:28:51:e4:bd:e3:fc:b3:a6:a0:e3:82:a4:b3:5b:
                    bb:32:68:53:8f:e7:f9:6c:d2:87:b8:64:55:33:92:
                    44:f8:63:b4:fc:ac:c2:38:74:47:ee:e8:19:95:91:
                    72:07:52:50:72:9b:27:56:77:80:30:c3:95:0c:cc:
                    35:21:7d:6b:d6:4f:f9:f9:da:37:29:98:a3:c1:3e:
                    f6:86:b6:93:54:1d:56:57:00:8a:df:9f:11:f3:74:
                    0d:62:c4:fb:a6:d2:92:5f:5e:fb:c3:42:11:36:e2:
                    48:64:71:c3:84:ef:29:f1:fc:60:77:82:a8:14:41:
                    e9:d0:9d:b2:01:a7:20:ef:65:43:dc:d2:04:6d:e2:
                    a5:da:8f:06:74:b7:39:4e:4a:36:db:1d:e1:47:de:
                    1d:ca:4e:2e:89:c2:72:08:d3:69:e9:98:e5:b8:b5:
                    e4:82:3f:b4:59:05:ad:69:cf:bc:e7:73:b9:4d:46:
                    54:85:69:85:2a:41:5f:9e:0b:9b:c9:2b:b0:a5:4a:
                    93:a7:6c:52:3f:80:5a:44:11:be:48:0c:60:49:d7:
                    bb:ec:3e:f1:e3:9b:97:4b:be:1c:d8:8a:3e:49:ed:
                    53:e8:62:38:05:9c:69:99:20:ba:dc:fa:0b:87:20:
                    b0:85:c5:06:70:41:1e:c0:95:1a:e6:1b:2b:35:d2:
                    d7:b4:47:9c:d9:44:b4:49:3b:78:70:42:01:9f:ac:
                    fe:eb:12:9c:df:85:d6:f5:18:6a:f2:34:6d:fa:cf:
                    9d:60:a6:29:04:15:2e:d0:7d:bf:dd:69:ce:a8:65:
                    0e:dd:2b:07:dd:3f:72:39:6c:75:73:e2:fa:87:51:
                    aa:89:d8:a9:de:65:fa:38:43:e8:79:56:ff:5b:bc:
                    81:2f:f3
                Exponent: 65537 (0x10001)
        X509v3 extensions:
            X509v3 Subject Key Identifier: 
                89:2E:D8:ED:35:F1:47:91:50:75:BD:FF:94:98:5C:B7:25:1D:D4:3C
            X509v3 Authority Key Identifier: 
                keyid:89:2E:D8:ED:35:F1:47:91:50:75:BD:FF:94:98:5C:B7:25:1D:D4:3C
                DirName:/C=IT/ST=Florence/O=Your_CA_organization_name/OU=Your_CA_organization_unit_name/CN=Your_CA_Root_name/emailAddress=your@ca.email
                serial:88:58:79:CF:D9:52:5E:16

            X509v3 Basic Constraints: 
                CA:TRUE
            X509v3 CRL Distribution Points: 

                Full Name:
                  URI:http://dashboard/example_ca.crl

    Signature Algorithm: sha256WithRSAEncryption
         a6:cb:4d:8c:91:c2:91:cf:fa:b0:c2:10:36:52:e2:96:36:61:
         fb:91:f6:00:a0:e2:fc:11:70:03:64:40:10:ae:56:a0:3e:68:
         88:b8:84:11:85:b5:d1:5d:08:be:e8:11:ad:55:f2:e8:b7:c1:
         ad:9c:9f:b8:1b:77:24:b4:81:5d:07:0f:9e:88:13:7b:74:94:
         b5:9e:13:68:bf:4a:cb:39:ec:d6:d9:42:32:7a:8a:51:ed:25:
         8e:82:ea:d3:fb:0a:70:22:a0:6d:2a:2d:a1:04:b4:cc:e0:e1:
         59:6f:ab:a2:2f:ae:88:25:98:32:d3:81:97:72:87:01:80:39:
         ce:63:59:ac:de:f5:19:c2:58:43:5c:de:9d:8d:9e:bd:93:15:
         56:3e:fc:3e:64:c3:2d:da:4c:2f:2b:69:b7:dd:17:f2:7c:ef:
         4a:df:7b:89:1e:14:dc:70:e7:45:94:7c:17:0c:2b:4b:ed:70:
         66:93:a0:c0:20:87:37:b1:cb:66:f0:d6:4c:8d:42:0a:6f:fd:
         48:23:ea:c2:58:f2:11:5b:1e:1f:37:98:5b:c0:f6:25:29:6c:
         68:cd:fe:14:d6:44:41:c2:a2:b2:d1:69:fb:c6:b3:c5:41:49:
         15:11:ba:d7:25:80:bb:58:7f:4c:b6:74:8e:91:cb:91:93:12:
         35:77:f0:c0:9c:52:1f:9e:18:8e:7a:8a:ee:75:7a:f9:e3:0a:
         34:37:e6:58:ab:d2:71:df:76:7c:cc:27:54:49:05:55:cf:01:
         dd:7e:65:a6:5e:50:e3:5c:7f:8d:c9:8c:21:07:b4:ee:20:bc:
         39:5f:89:ee:3d:d3:8a:64:9c:73:d7:9d:b2:98:1f:2a:83:f8:
         c6:a6:33:7e:64:c4:5e:d4:52:cd:ba:f8:fe:49:c0:4a:35:99:
         bf:d9:81:c9:d0:74:ef:e1:eb:86:bc:36:b2:ba:76:b5:6c:33:
         76:87:53:97:50:0b:cb:bb:72:e8:19:9e:8b:ee:e7:d7:a0:59:
         19:e4:9e:6c:48:1f:1a:7d:34:65:db:e6:64:75:eb:1f:55:7e:
         10:8f:e1:bb:4e:de:25:e6:23:1a:25:2a:80:01:42:97:47:17:
         81:31:70:0b:d4:81:3f:b4:aa:7f:23:f1:15:95:90:c4:8c:5d:
         8b:81:80:67:a7:5f:1b:a3:07:97:ea:70:6f:0d:b6:30:f7:68:
         2b:54:88:8d:09:48:cd:11:e6:0d:cc:1e:22:5c:ff:39:82:cc:
         e1:e7:da:cd:a9:20:f8:28:33:1a:dc:37:ae:08:af:bb:ee:2d:
         08:99:28:ee:28:63:34:70:25:1d:4e:6d:f5:d9:a2:33:a7:6b:
         b0:6d:cc:ca:14:f1:68:5a
-----BEGIN CERTIFICATE-----
MIIHFzCCBP+gAwIBAgIJAIhYec/ZUl4WMA0GCSqGSIb3DQEBCwUAMIGnMQswCQYD
VQQGEwJJVDERMA8GA1UECAwIRmxvcmVuY2UxIjAgBgNVBAoMGVlvdXJfQ0Ffb3Jn
YW5pemF0aW9uX25hbWUxJzAlBgNVBAsMHllvdXJfQ0Ffb3JnYW5pemF0aW9uX3Vu
aXRfbmFtZTEaMBgGA1UEAwwRWW91cl9DQV9Sb290X25hbWUxHDAaBgkqhkiG9w0B
CQEWDXlvdXJAY2EuZW1haWwwHhcNMTkxMDI5MTM0NjM5WhcNNDcwMzE1MTM0NjM5
WjCBpzELMAkGA1UEBhMCSVQxETAPBgNVBAgMCEZsb3JlbmNlMSIwIAYDVQQKDBlZ
b3VyX0NBX29yZ2FuaXphdGlvbl9uYW1lMScwJQYDVQQLDB5Zb3VyX0NBX29yZ2Fu
aXphdGlvbl91bml0X25hbWUxGjAYBgNVBAMMEVlvdXJfQ0FfUm9vdF9uYW1lMRww
GgYJKoZIhvcNAQkBFg15b3VyQGNhLmVtYWlsMIICIjANBgkqhkiG9w0BAQEFAAOC
Ag8AMIICCgKCAgEAvMfDF08qPqMCHT79yRlarhTsuriXij4mXf/yqvZ/P5tGiBgo
Wd+bFcYuB07Gps5J7ofqTy9uNDo4eWtyX+3AD/1lO07us/YoJS1YMmZ8S40oy78w
zCE+iCJqh2dPMQ5YKAwQtjQG7Z1N9a6OA3M3jrBebV+V8SMi8gBJEdKq3uR3E7Dn
Zpc/M7U96XxYUB+bwUIqFCdm8iccCcu8q5QrHyibIKOlYxDYakEpvTCClWPy/AAv
KFHkveP8s6ag44Kks1u7MmhTj+f5bNKHuGRVM5JE+GO0/KzCOHRH7ugZlZFyB1JQ
cpsnVneAMMOVDMw1IX1r1k/5+do3KZijwT72hraTVB1WVwCK358R83QNYsT7ptKS
X177w0IRNuJIZHHDhO8p8fxgd4KoFEHp0J2yAacg72VD3NIEbeKl2o8GdLc5Tko2
2x3hR94dyk4uicJyCNNp6ZjluLXkgj+0WQWtac+853O5TUZUhWmFKkFfngubySuw
pUqTp2xSP4BaRBG+SAxgSde77D7x45uXS74c2Io+Se1T6GI4BZxpmSC63PoLhyCw
hcUGcEEewJUa5hsrNdLXtEec2US0STt4cEIBn6z+6xKc34XW9Rhq8jRt+s+dYKYp
BBUu0H2/3WnOqGUO3SsH3T9yOWx1c+L6h1Gqidip3mX6OEPoeVb/W7yBL/MCAwEA
AaOCAUIwggE+MB0GA1UdDgQWBBSJLtjtNfFHkVB1vf+UmFy3JR3UPDCB3AYDVR0j
BIHUMIHRgBSJLtjtNfFHkVB1vf+UmFy3JR3UPKGBraSBqjCBpzELMAkGA1UEBhMC
SVQxETAPBgNVBAgMCEZsb3JlbmNlMSIwIAYDVQQKDBlZb3VyX0NBX29yZ2FuaXph
dGlvbl9uYW1lMScwJQYDVQQLDB5Zb3VyX0NBX29yZ2FuaXphdGlvbl91bml0X25h
bWUxGjAYBgNVBAMMEVlvdXJfQ0FfUm9vdF9uYW1lMRwwGgYJKoZIhvcNAQkBFg15
b3VyQGNhLmVtYWlsggkAiFh5z9lSXhYwDAYDVR0TBAUwAwEB/zAwBgNVHR8EKTAn
MCWgI6Ahhh9odHRwOi8vZGFzaGJvYXJkL2V4YW1wbGVfY2EuY3JsMA0GCSqGSIb3
DQEBCwUAA4ICAQCmy02MkcKRz/qwwhA2UuKWNmH7kfYAoOL8EXADZEAQrlagPmiI
uIQRhbXRXQi+6BGtVfLot8GtnJ+4G3cktIFdBw+eiBN7dJS1nhNov0rLOezW2UIy
eopR7SWOgurT+wpwIqBtKi2hBLTM4OFZb6uiL66IJZgy04GXcocBgDnOY1ms3vUZ
wlhDXN6djZ69kxVWPvw+ZMMt2kwvK2m33RfyfO9K33uJHhTccOdFlHwXDCtL7XBm
k6DAIIc3sctm8NZMjUIKb/1II+rCWPIRWx4fN5hbwPYlKWxozf4U1kRBwqKy0Wn7
xrPFQUkVEbrXJYC7WH9MtnSOkcuRkxI1d/DAnFIfnhiOeorudXr54wo0N+ZYq9Jx
33Z8zCdUSQVVzwHdfmWmXlDjXH+NyYwhB7TuILw5X4nuPdOKZJxz152ymB8qg/jG
pjN+ZMRe1FLNuvj+ScBKNZm/2YHJ0HTv4euGvDayuna1bDN2h1OXUAvLu3LoGZ6L
7ufXoFkZ5J5sSB8afTRl2+ZkdesfVX4Qj+G7Tt4l5iMaJSqAAUKXRxeBMXAL1IE/
tKp/I/EVlZDEjF2LgYBnp18boweX6nBvDbYw92grVIiNCUjNEeYNzB4iXP85gszh
59rNqSD4KDMa3DeuCK+77i0ImSjuKGM0cCUdTm312aIzp2uwbczKFPFoWg==
-----END CERTIFICATE-----
