Certificate:
    Data:
        Version: 3 (0x2)
        Serial Number:
            88:58:79:cf:d9:52:5e:18
    Signature Algorithm: sha256WithRSAEncryption
        Issuer: C=IT, ST=Florence, O=Your_CA_organization_name, OU=Your_CA_organization_unit_name, CN=Your_CA_Root_name/emailAddress=your@ca.email
        Validity
            Not Before: Oct 29 14:37:44 2019 GMT
            Not After : Oct 28 14:37:44 2020 GMT
        Subject: CN=iotobsf/mybuttondevice7?usermanager
        Subject Public Key Info:
            Public Key Algorithm: rsaEncryption
                Public-Key: (1024 bit)
                Modulus:
                    00:b1:71:b8:32:38:ce:0b:19:da:b1:8e:ee:ad:52:
                    fb:da:65:d6:e1:c6:01:25:e2:f5:bf:f7:8a:83:4d:
                    67:e8:03:68:6d:78:2b:65:bb:3c:a9:dd:eb:9f:ec:
                    8e:fa:62:91:15:84:f9:35:ae:85:bb:7c:20:4f:88:
                    e1:34:77:e6:2d:34:73:22:56:c1:7b:b3:34:71:e1:
                    e3:b0:0a:03:81:1c:e8:95:0e:63:b6:19:86:41:8a:
                    27:47:af:40:7e:a7:98:38:3d:76:47:c0:02:e8:a8:
                    b5:98:43:80:96:cc:a0:b4:6d:8e:67:eb:26:9c:9a:
                    39:7c:15:dd:d7:a6:04:ef:c7
                Exponent: 65537 (0x10001)
        X509v3 extensions:
            X509v3 Subject Key Identifier: 
                29:B2:B5:68:99:14:41:A7:4D:30:AD:A9:F5:93:5B:22:0A:C9:59:1C
            X509v3 Authority Key Identifier: 
                keyid:89:2E:D8:ED:35:F1:47:91:50:75:BD:FF:94:98:5C:B7:25:1D:D4:3C
                DirName:/C=IT/ST=Florence/O=Your_CA_organization_name/OU=Your_CA_organization_unit_name/CN=Your_CA_Root_name/emailAddress=your@ca.email
                serial:88:58:79:CF:D9:52:5E:16

            X509v3 Basic Constraints: 
                CA:TRUE
            X509v3 CRL Distribution Points: 

                Full Name:
                  URI:http://dashboard/example_ca.crl

    Signature Algorithm: sha256WithRSAEncryption
         2c:03:62:48:f0:a5:2b:59:20:fe:73:7e:ad:10:b5:fa:90:47:
         36:60:82:2c:a0:5f:60:f3:5a:c0:a8:ea:41:bd:ab:3c:08:f5:
         24:79:45:52:a4:3d:6b:9d:78:f6:58:4a:06:4c:28:8f:65:a5:
         9b:2b:51:d7:ec:4f:73:ab:4e:cd:79:09:77:83:99:42:d4:c6:
         44:d3:41:1c:9b:0a:da:27:ea:d5:ef:86:d5:12:4d:06:a3:d4:
         4e:1e:fb:32:09:fd:1f:0c:56:b1:66:6e:bd:49:60:b3:5b:c6:
         76:4f:40:f8:ca:40:f9:13:11:be:f4:e0:b4:88:df:58:3c:b0:
         09:65:a9:a1:98:12:ea:e6:84:95:9b:82:83:27:0e:3b:65:5f:
         3c:81:a4:57:26:af:2d:3e:36:5e:1c:dd:05:99:ba:e7:e7:f9:
         42:06:42:65:14:6b:80:ad:04:51:a2:0e:64:27:c6:36:1b:1b:
         5f:67:bc:2b:55:ea:23:b9:10:26:d5:26:44:7a:fe:a2:ca:84:
         33:9c:f0:10:de:2e:b5:d1:0a:e2:84:be:ae:e8:95:cd:86:ec:
         28:07:33:d7:ca:76:f4:27:45:90:58:7d:f4:93:c4:90:f5:60:
         0a:39:c8:69:07:8d:63:18:b5:cb:15:74:34:90:a7:86:6e:4b:
         8e:7f:10:70:ae:68:e9:ea:3c:11:df:8b:96:58:0a:cf:32:33:
         a3:0f:ff:c3:5c:ee:02:e8:a1:78:01:cd:41:4e:39:c5:0b:15:
         0a:37:fe:b2:0e:81:6b:05:5c:bd:36:6c:90:43:c7:1f:05:6e:
         ed:e2:a3:51:90:df:8d:51:51:10:ac:8e:5e:bc:12:59:3c:34:
         0d:4a:a9:b7:e8:07:2d:39:10:bf:48:36:fe:5e:05:66:b0:49:
         d5:ff:f5:db:0d:ec:93:c2:6d:e0:4f:15:05:c8:0b:2d:45:be:
         86:91:94:7e:3f:50:18:8f:78:6e:71:bc:d4:7e:17:a3:ce:2c:
         ce:f8:50:ef:2a:71:41:0d:10:a7:3d:e3:45:64:e2:f3:1f:22:
         40:5e:da:ac:c3:d5:7f:a2:f6:a9:03:b7:e2:85:4b:ec:b2:1f:
         d9:5c:7e:73:75:1f:ec:28:53:30:e2:8a:fd:87:7f:2e:7c:06:
         a2:cf:24:26:90:ff:3a:dc:bc:97:19:29:57:83:7a:75:03:d1:
         f1:4f:5a:8d:27:27:9c:89:17:13:1b:db:7d:24:7c:1a:46:ec:
         d7:cc:03:5a:f9:3c:22:4e:f8:25:9f:c3:e1:f1:52:a7:e9:54:
         c7:1a:4b:73:ad:2e:2c:3b:92:ed:e2:19:ed:82:2b:d9:7b:6e:
         75:fc:01:1d:17:71:95:c0
-----BEGIN CERTIFICATE-----
MIIFGTCCAwGgAwIBAgIJAIhYec/ZUl4YMA0GCSqGSIb3DQEBCwUAMIGnMQswCQYD
VQQGEwJJVDERMA8GA1UECAwIRmxvcmVuY2UxIjAgBgNVBAoMGVlvdXJfQ0Ffb3Jn
YW5pemF0aW9uX25hbWUxJzAlBgNVBAsMHllvdXJfQ0Ffb3JnYW5pemF0aW9uX3Vu
aXRfbmFtZTEaMBgGA1UEAwwRWW91cl9DQV9Sb290X25hbWUxHDAaBgkqhkiG9w0B
CQEWDXlvdXJAY2EuZW1haWwwHhcNMTkxMDI5MTQzNzQ0WhcNMjAxMDI4MTQzNzQ0
WjAuMSwwKgYDVQQDDCNpb3RvYnNmL215YnV0dG9uZGV2aWNlNz91c2VybWFuYWdl
cjCBnzANBgkqhkiG9w0BAQEFAAOBjQAwgYkCgYEAsXG4MjjOCxnasY7urVL72mXW
4cYBJeL1v/eKg01n6ANobXgrZbs8qd3rn+yO+mKRFYT5Na6Fu3wgT4jhNHfmLTRz
IlbBe7M0ceHjsAoDgRzolQ5jthmGQYonR69AfqeYOD12R8AC6Ki1mEOAlsygtG2O
Z+smnJo5fBXd16YE78cCAwEAAaOCAUIwggE+MB0GA1UdDgQWBBQpsrVomRRBp00w
ran1k1siCslZHDCB3AYDVR0jBIHUMIHRgBSJLtjtNfFHkVB1vf+UmFy3JR3UPKGB
raSBqjCBpzELMAkGA1UEBhMCSVQxETAPBgNVBAgMCEZsb3JlbmNlMSIwIAYDVQQK
DBlZb3VyX0NBX29yZ2FuaXphdGlvbl9uYW1lMScwJQYDVQQLDB5Zb3VyX0NBX29y
Z2FuaXphdGlvbl91bml0X25hbWUxGjAYBgNVBAMMEVlvdXJfQ0FfUm9vdF9uYW1l
MRwwGgYJKoZIhvcNAQkBFg15b3VyQGNhLmVtYWlsggkAiFh5z9lSXhYwDAYDVR0T
BAUwAwEB/zAwBgNVHR8EKTAnMCWgI6Ahhh9odHRwOi8vZGFzaGJvYXJkL2V4YW1w
bGVfY2EuY3JsMA0GCSqGSIb3DQEBCwUAA4ICAQAsA2JI8KUrWSD+c36tELX6kEc2
YIIsoF9g81rAqOpBvas8CPUkeUVSpD1rnXj2WEoGTCiPZaWbK1HX7E9zq07NeQl3
g5lC1MZE00EcmwraJ+rV74bVEk0Go9ROHvsyCf0fDFaxZm69SWCzW8Z2T0D4ykD5
ExG+9OC0iN9YPLAJZamhmBLq5oSVm4KDJw47ZV88gaRXJq8tPjZeHN0Fmbrn5/lC
BkJlFGuArQRRog5kJ8Y2GxtfZ7wrVeojuRAm1SZEev6iyoQznPAQ3i610QrihL6u
6JXNhuwoBzPXynb0J0WQWH30k8SQ9WAKOchpB41jGLXLFXQ0kKeGbkuOfxBwrmjp
6jwR34uWWArPMjOjD//DXO4C6KF4Ac1BTjnFCxUKN/6yDoFrBVy9NmyQQ8cfBW7t
4qNRkN+NUVEQrI5evBJZPDQNSqm36ActORC/SDb+XgVmsEnV//XbDeyTwm3gTxUF
yAstRb6GkZR+P1AYj3hucbzUfhejzizO+FDvKnFBDRCnPeNFZOLzHyJAXtqsw9V/
ovapA7fihUvssh/ZXH5zdR/sKFMw4or9h38ufAaizyQmkP863LyXGSlXg3p1A9Hx
T1qNJyeciRcTG9t9JHwaRuzXzANa+TwiTvgln8Ph8VKn6VTHGktzrS4sO5Lt4hnt
givZe251/AEdF3GVwA==
-----END CERTIFICATE-----
