Certificate:
    Data:
        Version: 3 (0x2)
        Serial Number:
            88:58:79:cf:d9:52:5e:19
    Signature Algorithm: sha256WithRSAEncryption
        Issuer: C=IT, ST=Florence, O=Your_CA_organization_name, OU=Your_CA_organization_unit_name, CN=Your_CA_Root_name/emailAddress=your@ca.email
        Validity
            Not Before: Oct 29 15:30:19 2019 GMT
            Not After : Oct 28 15:30:19 2020 GMT
        Subject: CN=iotobsf/mybuttondevice8?usermanager
        Subject Public Key Info:
            Public Key Algorithm: rsaEncryption
                Public-Key: (1024 bit)
                Modulus:
                    00:9f:39:12:a8:d7:b0:25:77:74:0e:24:d0:cb:46:
                    02:cb:3d:f5:91:1f:d5:97:a7:1b:b9:18:06:b2:ea:
                    6e:56:3e:a4:5d:62:de:cb:1d:25:a3:64:4e:58:d4:
                    2f:72:53:3b:d4:4b:54:08:47:38:89:81:9d:8e:e5:
                    19:ae:fd:96:38:3d:d1:35:9c:7e:1e:07:42:ee:1b:
                    84:5d:76:e2:50:c3:1a:92:11:40:20:16:90:aa:d3:
                    0a:e6:d9:c3:d5:dd:03:c0:da:bb:46:3d:b1:b8:32:
                    33:59:b1:5d:97:4b:d9:e1:2d:c2:9e:dd:51:b3:11:
                    e4:9e:d7:02:1e:f7:b6:f6:95
                Exponent: 65537 (0x10001)
        X509v3 extensions:
            X509v3 Subject Key Identifier: 
                F9:15:9C:39:1E:CA:53:93:88:4B:ED:8E:39:8A:35:78:C4:06:90:D9
            X509v3 Authority Key Identifier: 
                keyid:89:2E:D8:ED:35:F1:47:91:50:75:BD:FF:94:98:5C:B7:25:1D:D4:3C
                DirName:/C=IT/ST=Florence/O=Your_CA_organization_name/OU=Your_CA_organization_unit_name/CN=Your_CA_Root_name/emailAddress=your@ca.email
                serial:88:58:79:CF:D9:52:5E:16

            X509v3 Basic Constraints: 
                CA:TRUE
            X509v3 CRL Distribution Points: 

                Full Name:
                  URI:http://dashboard/example_ca.crl

    Signature Algorithm: sha256WithRSAEncryption
         7a:69:b2:55:70:78:2a:1a:8e:74:09:eb:16:e7:8e:85:5a:18:
         69:61:9d:34:27:91:f9:81:81:8b:a1:7f:7c:f3:6e:63:6c:51:
         72:0d:65:66:0f:de:43:e5:e1:19:4f:2b:fd:22:8a:6a:03:fd:
         53:f3:ff:03:e1:da:32:bd:3f:66:f1:8a:48:35:99:bb:4c:7b:
         e6:ce:37:d5:25:5a:8d:b2:16:d0:78:90:f3:12:16:6d:b6:20:
         22:7e:0e:d9:db:a2:7d:8b:b6:d5:74:81:a2:70:1a:b3:1b:43:
         48:92:35:c0:96:fd:4a:36:28:ed:3a:ac:3f:04:bb:56:4f:8d:
         b0:89:ee:c1:3e:69:76:09:8d:a0:a7:b4:37:26:43:f5:f9:c5:
         fe:e3:b4:a6:c2:6d:d0:f9:42:54:3f:19:49:b8:bf:01:fc:90:
         c5:26:31:17:75:37:95:ca:df:e3:ad:f0:34:72:12:45:a8:b3:
         10:cd:2e:54:6b:fc:66:a6:18:56:14:fb:d7:4e:b7:16:19:88:
         f0:94:4d:0e:e6:cf:c1:ac:83:cc:66:2f:9f:3a:b3:0b:20:64:
         ab:29:53:80:0b:83:25:5d:5b:28:1f:4b:89:e1:e4:70:2e:12:
         a7:20:0b:85:78:b2:f0:8a:dd:2c:05:97:ee:89:51:6b:4b:df:
         f6:96:a3:45:5f:19:c3:d9:cb:1c:51:59:02:cf:db:ba:49:bf:
         8c:0e:14:d5:9f:fe:c1:1f:88:80:6f:36:f4:c6:95:aa:3e:fc:
         06:72:17:26:8d:6c:bb:0a:11:54:48:d1:f3:d7:f2:53:4c:cd:
         6d:be:d7:da:20:0c:89:4e:51:3c:fd:46:c0:05:7c:5e:8d:e0:
         03:73:6f:94:de:82:86:09:ea:dc:d6:f2:b3:c8:17:cd:0f:9d:
         41:c8:4b:52:ff:75:7c:fa:49:3c:43:b6:74:cc:57:f8:ff:a6:
         e9:f4:66:da:df:48:9d:30:52:32:8f:d8:6a:3f:b6:e6:0e:88:
         2a:15:7e:67:31:c9:97:7b:da:1c:68:36:0c:55:ad:83:15:1d:
         b8:8e:b0:cb:de:57:05:db:22:73:27:ad:8f:1b:a1:f3:7e:4d:
         96:a6:4c:c2:3c:10:ee:e3:17:a9:d6:9d:2a:b8:be:b8:d6:39:
         9c:3d:22:a7:4d:7f:40:cb:9e:36:5b:e3:68:0b:8b:af:79:db:
         71:51:db:9b:53:5a:3a:f6:0a:0a:1c:a1:d4:5c:24:13:e5:52:
         c3:c9:ef:ad:bd:9b:22:4f:ac:20:1a:27:63:db:ea:9f:db:31:
         7f:37:08:06:18:c4:58:f3:4f:af:fe:31:9e:3b:fb:56:d5:14:
         eb:63:19:95:e0:3f:05:28
-----BEGIN CERTIFICATE-----
MIIFGTCCAwGgAwIBAgIJAIhYec/ZUl4ZMA0GCSqGSIb3DQEBCwUAMIGnMQswCQYD
VQQGEwJJVDERMA8GA1UECAwIRmxvcmVuY2UxIjAgBgNVBAoMGVlvdXJfQ0Ffb3Jn
YW5pemF0aW9uX25hbWUxJzAlBgNVBAsMHllvdXJfQ0Ffb3JnYW5pemF0aW9uX3Vu
aXRfbmFtZTEaMBgGA1UEAwwRWW91cl9DQV9Sb290X25hbWUxHDAaBgkqhkiG9w0B
CQEWDXlvdXJAY2EuZW1haWwwHhcNMTkxMDI5MTUzMDE5WhcNMjAxMDI4MTUzMDE5
WjAuMSwwKgYDVQQDDCNpb3RvYnNmL215YnV0dG9uZGV2aWNlOD91c2VybWFuYWdl
cjCBnzANBgkqhkiG9w0BAQEFAAOBjQAwgYkCgYEAnzkSqNewJXd0DiTQy0YCyz31
kR/Vl6cbuRgGsupuVj6kXWLeyx0lo2ROWNQvclM71EtUCEc4iYGdjuUZrv2WOD3R
NZx+HgdC7huEXXbiUMMakhFAIBaQqtMK5tnD1d0DwNq7Rj2xuDIzWbFdl0vZ4S3C
nt1RsxHkntcCHve29pUCAwEAAaOCAUIwggE+MB0GA1UdDgQWBBT5FZw5HspTk4hL
7Y45ijV4xAaQ2TCB3AYDVR0jBIHUMIHRgBSJLtjtNfFHkVB1vf+UmFy3JR3UPKGB
raSBqjCBpzELMAkGA1UEBhMCSVQxETAPBgNVBAgMCEZsb3JlbmNlMSIwIAYDVQQK
DBlZb3VyX0NBX29yZ2FuaXphdGlvbl9uYW1lMScwJQYDVQQLDB5Zb3VyX0NBX29y
Z2FuaXphdGlvbl91bml0X25hbWUxGjAYBgNVBAMMEVlvdXJfQ0FfUm9vdF9uYW1l
MRwwGgYJKoZIhvcNAQkBFg15b3VyQGNhLmVtYWlsggkAiFh5z9lSXhYwDAYDVR0T
BAUwAwEB/zAwBgNVHR8EKTAnMCWgI6Ahhh9odHRwOi8vZGFzaGJvYXJkL2V4YW1w
bGVfY2EuY3JsMA0GCSqGSIb3DQEBCwUAA4ICAQB6abJVcHgqGo50CesW546FWhhp
YZ00J5H5gYGLoX98825jbFFyDWVmD95D5eEZTyv9IopqA/1T8/8D4doyvT9m8YpI
NZm7THvmzjfVJVqNshbQeJDzEhZttiAifg7Z26J9i7bVdIGicBqzG0NIkjXAlv1K
NijtOqw/BLtWT42wie7BPml2CY2gp7Q3JkP1+cX+47Smwm3Q+UJUPxlJuL8B/JDF
JjEXdTeVyt/jrfA0chJFqLMQzS5Ua/xmphhWFPvXTrcWGYjwlE0O5s/BrIPMZi+f
OrMLIGSrKVOAC4MlXVsoH0uJ4eRwLhKnIAuFeLLwit0sBZfuiVFrS9/2lqNFXxnD
2cscUVkCz9u6Sb+MDhTVn/7BH4iAbzb0xpWqPvwGchcmjWy7ChFUSNHz1/JTTM1t
vtfaIAyJTlE8/UbABXxejeADc2+U3oKGCerc1vKzyBfND51ByEtS/3V8+kk8Q7Z0
zFf4/6bp9Gba30idMFIyj9hqP7bmDogqFX5nMcmXe9ocaDYMVa2DFR24jrDL3lcF
2yJzJ62PG6Hzfk2WpkzCPBDu4xep1p0quL641jmcPSKnTX9Ay542W+NoC4uvedtx
UdubU1o69goKHKHUXCQT5VLDye+tvZsiT6wgGidj2+qf2zF/NwgGGMRY80+v/jGe
O/tW1RTrYxmV4D8FKA==
-----END CERTIFICATE-----
