Certificate:
    Data:
        Version: 3 (0x2)
        Serial Number:
            88:58:79:cf:d9:52:5e:17
    Signature Algorithm: sha256WithRSAEncryption
        Issuer: C=IT, ST=Florence, O=Your_CA_organization_name, OU=Your_CA_organization_unit_name, CN=Your_CA_Root_name/emailAddress=your@ca.email
        Validity
            Not Before: Oct 29 13:46:55 2019 GMT
            Not After : Jan 31 13:46:55 2022 GMT
        Subject: C=IT, ST=Florence, O=Your_SERVER_organization_name, OU=Your_SERVER_organization_unit_name, CN=iotobsf/emailAddress=your@server.email
        Subject Public Key Info:
            Public Key Algorithm: rsaEncryption
                Public-Key: (4096 bit)
                Modulus:
                    00:c5:42:5d:93:e1:83:0a:f0:f3:82:eb:5c:3a:ce:
                    5e:5d:c8:82:34:aa:8b:73:96:3f:43:b8:d9:3c:d3:
                    71:81:5e:5e:f9:61:af:7e:18:a6:0e:58:31:1c:0b:
                    5f:72:4d:79:9c:64:e7:01:2c:9c:5f:cd:3a:31:e7:
                    f9:9f:66:36:2f:75:08:72:4d:8a:35:4c:a6:99:b2:
                    39:fe:6a:44:49:f8:d6:f2:87:4c:84:ef:cc:2f:dc:
                    0f:22:de:f6:51:5f:77:a4:63:31:65:5b:3f:96:5f:
                    7b:62:19:b4:b2:b0:dc:e9:bc:7e:b0:33:61:85:aa:
                    6d:11:35:b9:a2:a8:8d:ca:65:04:6f:9e:eb:9c:07:
                    1c:08:0a:08:45:23:a1:a6:94:06:49:6c:ea:a5:5a:
                    a2:ba:d4:e3:e5:6b:76:5b:a0:f7:fd:c7:e6:9d:85:
                    52:b1:8c:75:a6:b8:d7:86:85:45:75:11:2d:50:8e:
                    a6:6e:d0:09:27:15:79:6d:45:ad:d7:12:c9:4e:e7:
                    62:c4:03:cc:87:b0:d8:a4:28:e3:8c:8a:39:df:47:
                    f6:c0:38:97:26:b0:dd:aa:53:ff:19:47:21:76:8b:
                    24:02:04:9a:97:a0:62:dd:bc:60:f8:f8:9f:34:4f:
                    80:93:94:31:9a:e9:58:86:4d:02:03:0a:bc:39:20:
                    5e:dd:ce:a6:3b:fc:2d:dd:14:42:76:d2:26:e2:db:
                    2f:be:9a:21:ac:5e:f6:0f:cf:e1:b4:60:7d:c3:ab:
                    a1:4b:48:51:f3:9d:d2:52:03:7f:60:c3:db:eb:88:
                    b5:34:3a:92:41:31:bd:ca:0d:cb:29:57:2e:24:00:
                    c5:1a:1e:38:27:00:4c:ae:12:ab:99:62:42:ea:6a:
                    0d:be:19:cf:81:0d:ba:39:71:ce:dd:62:29:6e:9e:
                    e3:d4:fd:ea:89:78:68:6d:66:15:1e:81:86:67:43:
                    cf:06:a5:c7:05:59:c9:6b:a2:5e:4b:dc:f0:60:87:
                    71:40:c1:5c:95:62:2a:11:6e:78:95:bd:34:60:f0:
                    7b:6a:c0:4a:9b:be:86:1a:e4:1a:90:e6:6f:04:16:
                    f1:10:31:6e:b8:b8:b8:fe:3a:9a:b7:8a:5a:d5:e9:
                    1f:0a:8d:98:47:86:e3:6c:7f:3b:a6:c4:7a:a8:52:
                    67:ac:88:ca:97:60:56:f9:2e:d1:4e:12:e8:e1:2f:
                    44:86:39:f1:2d:14:bc:2b:b3:76:e8:61:27:b0:47:
                    22:49:f4:57:8e:f9:43:9f:d0:0d:dc:be:96:50:ce:
                    0b:c0:97:5f:e4:8e:5e:de:8a:57:09:11:ab:d6:8a:
                    a0:10:32:ff:1b:90:f4:a4:a0:9d:ab:1e:b4:2b:4b:
                    49:6d:43
                Exponent: 65537 (0x10001)
        X509v3 extensions:
            X509v3 Subject Key Identifier: 
                7C:AB:FB:B2:9E:28:7E:80:DE:6D:55:28:39:54:AC:31:B2:0A:BA:A5
            X509v3 Authority Key Identifier: 
                keyid:89:2E:D8:ED:35:F1:47:91:50:75:BD:FF:94:98:5C:B7:25:1D:D4:3C
                DirName:/C=IT/ST=Florence/O=Your_CA_organization_name/OU=Your_CA_organization_unit_name/CN=Your_CA_Root_name/emailAddress=your@ca.email
                serial:88:58:79:CF:D9:52:5E:16

            X509v3 Basic Constraints: 
                CA:TRUE
            X509v3 CRL Distribution Points: 

                Full Name:
                  URI:http://dashboard/example_ca.crl

            X509v3 Key Usage: 
                Digital Signature, Non Repudiation, Key Encipherment
            X509v3 Subject Alternative Name: 
                DNS:iotobsf
    Signature Algorithm: sha256WithRSAEncryption
         65:dd:3f:f3:27:e6:40:74:79:76:87:6d:56:f1:fb:13:b6:22:
         e4:ff:ad:52:f1:1c:7d:ab:70:fa:bc:bf:e3:bb:e1:19:cf:73:
         99:fe:d7:98:43:bc:a1:5d:90:95:1d:3d:df:80:30:be:a1:19:
         96:f2:e0:c2:c9:b1:e7:53:2b:a8:6f:b2:c1:32:86:5e:e2:9b:
         33:0f:ff:1b:af:a5:1f:d0:1e:e1:9e:4b:bf:f1:a4:10:3e:ee:
         86:82:de:9d:49:a4:87:67:51:87:44:d2:10:1e:fc:8a:7c:40:
         9d:e7:ef:51:1f:53:5f:f8:dd:be:da:8e:ec:04:4b:b6:66:80:
         73:f2:29:9d:f2:50:1c:4f:41:b1:27:d0:9e:23:31:98:9f:1e:
         47:34:95:de:b5:6f:41:37:f1:f1:63:4c:ce:98:e0:5d:c8:b5:
         86:53:55:9b:ac:9e:c4:1b:c4:12:9f:8e:4a:42:ea:0e:46:ca:
         66:d0:86:33:f9:a2:5c:75:a3:c0:28:e2:3a:7e:85:42:82:08:
         7f:72:97:cf:c3:75:a6:6e:78:7e:8c:e5:4a:19:7e:7e:0c:39:
         0a:6f:c6:f7:56:00:8a:72:e9:86:57:59:38:5f:7c:8f:05:25:
         c5:3d:8f:ed:6a:b4:5c:db:c2:08:cc:05:8e:4f:82:e4:fb:38:
         ae:6d:99:0b:60:34:10:aa:3f:d7:49:6e:a0:25:8a:9a:43:a8:
         9b:ab:28:ed:b6:72:ef:8b:20:77:29:57:8c:dd:3f:d9:c6:8b:
         36:3a:43:db:ce:81:d1:b8:78:95:bd:eb:7e:d0:8c:3f:6e:ad:
         e4:d4:07:e8:a2:75:37:e3:d5:c3:fd:19:88:24:e0:d0:31:e8:
         c3:5c:ac:c5:47:ab:3c:88:e2:9c:e8:8f:6c:72:ee:8e:bb:bd:
         16:d3:94:75:e7:c6:54:36:71:bd:e1:02:3e:64:b6:61:9c:85:
         e4:49:80:70:7c:df:5b:65:c8:d2:b3:a8:c1:57:2e:cb:84:52:
         0a:d2:ca:d2:ee:6f:34:ea:b6:34:c7:9a:35:a0:71:7d:86:b6:
         54:f7:1a:13:f7:59:8f:0a:6c:58:e8:dd:c2:f3:f4:8f:75:b0:
         cf:0a:16:bc:47:7a:d8:c0:bd:f2:e0:42:d2:cb:e6:3e:1c:8f:
         a6:2c:15:22:71:bb:09:4a:e8:dd:13:ad:b3:89:50:d2:48:73:
         68:2a:e4:9e:e0:ae:ac:12:5e:23:c8:dd:ef:6b:c9:43:ce:75:
         fb:6b:13:59:a3:a7:6c:a5:e6:45:d3:5b:a4:62:3e:a3:5f:ea:
         06:f3:2e:98:56:a6:03:ac:eb:2a:44:06:9d:da:2a:9d:94:fa:
         68:ca:9c:25:76:73:42:1b
-----BEGIN CERTIFICATE-----
MIIHOjCCBSKgAwIBAgIJAIhYec/ZUl4XMA0GCSqGSIb3DQEBCwUAMIGnMQswCQYD
VQQGEwJJVDERMA8GA1UECAwIRmxvcmVuY2UxIjAgBgNVBAoMGVlvdXJfQ0Ffb3Jn
YW5pemF0aW9uX25hbWUxJzAlBgNVBAsMHllvdXJfQ0Ffb3JnYW5pemF0aW9uX3Vu
aXRfbmFtZTEaMBgGA1UEAwwRWW91cl9DQV9Sb290X25hbWUxHDAaBgkqhkiG9w0B
CQEWDXlvdXJAY2EuZW1haWwwHhcNMTkxMDI5MTM0NjU1WhcNMjIwMTMxMTM0NjU1
WjCBqTELMAkGA1UEBhMCSVQxETAPBgNVBAgMCEZsb3JlbmNlMSYwJAYDVQQKDB1Z
b3VyX1NFUlZFUl9vcmdhbml6YXRpb25fbmFtZTErMCkGA1UECwwiWW91cl9TRVJW
RVJfb3JnYW5pemF0aW9uX3VuaXRfbmFtZTEQMA4GA1UEAwwHaW90b2JzZjEgMB4G
CSqGSIb3DQEJARYReW91ckBzZXJ2ZXIuZW1haWwwggIiMA0GCSqGSIb3DQEBAQUA
A4ICDwAwggIKAoICAQDFQl2T4YMK8POC61w6zl5dyII0qotzlj9DuNk803GBXl75
Ya9+GKYOWDEcC19yTXmcZOcBLJxfzTox5/mfZjYvdQhyTYo1TKaZsjn+akRJ+Nby
h0yE78wv3A8i3vZRX3ekYzFlWz+WX3tiGbSysNzpvH6wM2GFqm0RNbmiqI3KZQRv
nuucBxwICghFI6GmlAZJbOqlWqK61OPla3ZboPf9x+adhVKxjHWmuNeGhUV1ES1Q
jqZu0AknFXltRa3XEslO52LEA8yHsNikKOOMijnfR/bAOJcmsN2qU/8ZRyF2iyQC
BJqXoGLdvGD4+J80T4CTlDGa6ViGTQIDCrw5IF7dzqY7/C3dFEJ20ibi2y++miGs
XvYPz+G0YH3Dq6FLSFHzndJSA39gw9vriLU0OpJBMb3KDcspVy4kAMUaHjgnAEyu
EquZYkLqag2+Gc+BDbo5cc7dYilunuPU/eqJeGhtZhUegYZnQ88GpccFWclrol5L
3PBgh3FAwVyVYioRbniVvTRg8HtqwEqbvoYa5BqQ5m8EFvEQMW64uLj+Opq3ilrV
6R8KjZhHhuNsfzumxHqoUmesiMqXYFb5LtFOEujhL0SGOfEtFLwrs3boYSewRyJJ
9FeO+UOf0A3cvpZQzgvAl1/kjl7eilcJEavWiqAQMv8bkPSkoJ2rHrQrS0ltQwID
AQABo4IBYzCCAV8wHQYDVR0OBBYEFHyr+7KeKH6A3m1VKDlUrDGyCrqlMIHcBgNV
HSMEgdQwgdGAFIku2O018UeRUHW9/5SYXLclHdQ8oYGtpIGqMIGnMQswCQYDVQQG
EwJJVDERMA8GA1UECAwIRmxvcmVuY2UxIjAgBgNVBAoMGVlvdXJfQ0Ffb3JnYW5p
emF0aW9uX25hbWUxJzAlBgNVBAsMHllvdXJfQ0Ffb3JnYW5pemF0aW9uX3VuaXRf
bmFtZTEaMBgGA1UEAwwRWW91cl9DQV9Sb290X25hbWUxHDAaBgkqhkiG9w0BCQEW
DXlvdXJAY2EuZW1haWyCCQCIWHnP2VJeFjAMBgNVHRMEBTADAQH/MDAGA1UdHwQp
MCcwJaAjoCGGH2h0dHA6Ly9kYXNoYm9hcmQvZXhhbXBsZV9jYS5jcmwwCwYDVR0P
BAQDAgXgMBIGA1UdEQQLMAmCB2lvdG9ic2YwDQYJKoZIhvcNAQELBQADggIBAGXd
P/Mn5kB0eXaHbVbx+xO2IuT/rVLxHH2rcPq8v+O74RnPc5n+15hDvKFdkJUdPd+A
ML6hGZby4MLJsedTK6hvssEyhl7imzMP/xuvpR/QHuGeS7/xpBA+7oaC3p1JpIdn
UYdE0hAe/Ip8QJ3n71EfU1/43b7ajuwES7ZmgHPyKZ3yUBxPQbEn0J4jMZifHkc0
ld61b0E38fFjTM6Y4F3ItYZTVZusnsQbxBKfjkpC6g5GymbQhjP5olx1o8Ao4jp+
hUKCCH9yl8/DdaZueH6M5UoZfn4MOQpvxvdWAIpy6YZXWThffI8FJcU9j+1qtFzb
wgjMBY5PguT7OK5tmQtgNBCqP9dJbqAlippDqJurKO22cu+LIHcpV4zdP9nGizY6
Q9vOgdG4eJW9637QjD9ureTUB+iidTfj1cP9GYgk4NAx6MNcrMVHqzyI4pzoj2xy
7o67vRbTlHXnxlQ2cb3hAj5ktmGcheRJgHB831tlyNKzqMFXLsuEUgrSytLubzTq
tjTHmjWgcX2GtlT3GhP3WY8KbFjo3cLz9I91sM8KFrxHetjAvfLgQtLL5j4cj6Ys
FSJxuwlK6N0TrbOJUNJIc2gq5J7grqwSXiPI3e9ryUPOdftrE1mjp2yl5kXTW6Ri
PqNf6gbzLphWpgOs6ypEBp3aKp2U+mjKnCV2c0Ib
-----END CERTIFICATE-----
